target datalayout = "e-m:e-p270:32:32-p271:32:32-p272:64:64-i64:64-i128:128-f80:128-n8:16:32:64-S128"
target triple = "x86_64-pc-linux-gnu"

%struct.mbedtls_nist_kw_context = type { %struct.mbedtls_cipher_context_t }
%struct.mbedtls_cipher_context_t = type { ptr, i32, i32, ptr, ptr, [16 x i8], i64, [16 x i8], i64, ptr, ptr }

; Function Attrs: nounwind uwtable
define internal void @calc_a_xor_t(ptr noundef %0, i64 noundef %1) #0 {
  %3 = alloca ptr, align 8
  %4 = alloca i64, align 8
  %5 = alloca i64, align 8
  store ptr %0, ptr %3, align 8, !tbaa !9
  store i64 %1, ptr %4, align 8, !tbaa !13
  call void @llvm.lifetime.start.p0(i64 8, ptr %5) #9
  store i64 0, ptr %5, align 8, !tbaa !13
  store i64 0, ptr %5, align 8, !tbaa !13
  br label %6

6:                                                ; preds = %23, %2
  %7 = load i64, ptr %5, align 8, !tbaa !13
  %8 = icmp ult i64 %7, 8
  br i1 %8, label %9, label %26

9:                                                ; preds = %6
  %10 = load i64, ptr %4, align 8, !tbaa !13
  %11 = load i64, ptr %5, align 8, !tbaa !13
  %12 = sub i64 7, %11
  %13 = mul i64 %12, 8
  %14 = lshr i64 %10, %13
  %15 = and i64 %14, 255
  %16 = load ptr, ptr %3, align 8, !tbaa !9
  %17 = load i64, ptr %5, align 8, !tbaa !13
  %18 = getelementptr inbounds nuw i8, ptr %16, i64 %17
  %19 = load i8, ptr %18, align 1, !tbaa !19
  %20 = zext i8 %19 to i64
  %21 = xor i64 %20, %15
  %22 = trunc i64 %21 to i8
  store i8 %22, ptr %18, align 1, !tbaa !19
  br label %23

23:                                               ; preds = %9
  %24 = load i64, ptr %5, align 8, !tbaa !13
  %25 = add i64 %24, 1
  store i64 %25, ptr %5, align 8, !tbaa !13
  br label %6, !llvm.loop !20

26:                                               ; preds = %6
  call void @llvm.lifetime.end.p0(i64 8, ptr %5) #9
  ret void
}

; Function Attrs: nounwind uwtable
define internal i32 @unwrap(ptr noundef %0, ptr noundef %1, i64 noundef %2, ptr noundef %3, ptr noundef %4, ptr noundef %5) #0 {
  %7 = alloca i32, align 4
  %8 = alloca ptr, align 8
  %9 = alloca ptr, align 8
  %10 = alloca i64, align 8
  %11 = alloca ptr, align 8
  %12 = alloca ptr, align 8
  %13 = alloca ptr, align 8
  %14 = alloca i32, align 4
  %15 = alloca i64, align 8
  %16 = alloca i64, align 8
  %17 = alloca i64, align 8
  %18 = alloca [16 x i8], align 16
  %19 = alloca [16 x i8], align 16
  %20 = alloca ptr, align 8
  %21 = alloca i32, align 4
  store ptr %0, ptr %8, align 8, !tbaa !3
  store ptr %1, ptr %9, align 8, !tbaa !9
  store i64 %2, ptr %10, align 8, !tbaa !13
  store ptr %3, ptr %11, align 8, !tbaa !9
  store ptr %4, ptr %12, align 8, !tbaa !9
  store ptr %5, ptr %13, align 8, !tbaa !15
  call void @llvm.lifetime.start.p0(i64 4, ptr %14) #9
  store i32 0, ptr %14, align 4, !tbaa !7
  call void @llvm.lifetime.start.p0(i64 8, ptr %15) #9
  %22 = load i64, ptr %10, align 8, !tbaa !13
  %23 = sub i64 %22, 1
  %24 = mul i64 6, %23
  store i64 %24, ptr %15, align 8, !tbaa !13
  call void @llvm.lifetime.start.p0(i64 8, ptr %16) #9
  call void @llvm.lifetime.start.p0(i64 8, ptr %17) #9
  store i64 0, ptr %17, align 8, !tbaa !13
  call void @llvm.lifetime.start.p0(i64 16, ptr %18) #9
  call void @llvm.lifetime.start.p0(i64 16, ptr %19) #9
  call void @llvm.lifetime.start.p0(i64 8, ptr %20) #9
  store ptr null, ptr %20, align 8, !tbaa !9
  %25 = load ptr, ptr %13, align 8, !tbaa !15
  store i64 0, ptr %25, align 8, !tbaa !13
  %26 = load i64, ptr %10, align 8, !tbaa !13
  %27 = icmp ult i64 %26, 3
  br i1 %27, label %28, label %29

28:                                               ; preds = %6
  store i32 -24832, ptr %7, align 4
  store i32 1, ptr %21, align 4
  br label %102

29:                                               ; preds = %6
  %30 = load ptr, ptr %11, align 8, !tbaa !9
  %31 = load ptr, ptr %9, align 8, !tbaa !9
  call void @llvm.memcpy.p0.p0.i64(ptr align 1 %30, ptr align 1 %31, i64 8, i1 false)
  %32 = load ptr, ptr %12, align 8, !tbaa !9
  %33 = load ptr, ptr %9, align 8, !tbaa !9
  %34 = getelementptr inbounds i8, ptr %33, i64 8
  %35 = load i64, ptr %10, align 8, !tbaa !13
  %36 = sub i64 %35, 1
  %37 = mul i64 %36, 8
  call void @llvm.memmove.p0.p0.i64(ptr align 1 %32, ptr align 1 %34, i64 %37, i1 false)
  %38 = load ptr, ptr %12, align 8, !tbaa !9
  %39 = load i64, ptr %10, align 8, !tbaa !13
  %40 = sub i64 %39, 2
  %41 = mul i64 %40, 8
  %42 = getelementptr inbounds nuw i8, ptr %38, i64 %41
  store ptr %42, ptr %20, align 8, !tbaa !9
  %43 = load i64, ptr %15, align 8, !tbaa !13
  store i64 %43, ptr %17, align 8, !tbaa !13
  br label %44

44:                                               ; preds = %82, %29
  %45 = load i64, ptr %17, align 8, !tbaa !13
  %46 = icmp uge i64 %45, 1
  br i1 %46, label %47, label %85

47:                                               ; preds = %44
  %48 = load ptr, ptr %11, align 8, !tbaa !9
  %49 = load i64, ptr %17, align 8, !tbaa !13
  call void @calc_a_xor_t(ptr noundef %48, i64 noundef %49)
  %50 = getelementptr inbounds [16 x i8], ptr %19, i64 0, i64 0
  %51 = load ptr, ptr %11, align 8, !tbaa !9
  call void @llvm.memcpy.p0.p0.i64(ptr align 16 %50, ptr align 1 %51, i64 8, i1 false)
  %52 = getelementptr inbounds [16 x i8], ptr %19, i64 0, i64 0
  %53 = getelementptr inbounds i8, ptr %52, i64 8
  %54 = load ptr, ptr %20, align 8, !tbaa !9
  call void @llvm.memcpy.p0.p0.i64(ptr align 1 %53, ptr align 1 %54, i64 8, i1 false)
  %55 = load ptr, ptr %8, align 8, !tbaa !3
  %56 = getelementptr inbounds nuw %struct.mbedtls_nist_kw_context, ptr %55, i32 0, i32 0
  %57 = getelementptr inbounds [16 x i8], ptr %19, i64 0, i64 0
  %58 = getelementptr inbounds [16 x i8], ptr %18, i64 0, i64 0
  %59 = call i32 @mbedtls_cipher_update(ptr noundef %56, ptr noundef %57, i64 noundef 16, ptr noundef %58, ptr noundef %16)
  store i32 %59, ptr %14, align 4, !tbaa !7
  %60 = load i32, ptr %14, align 4, !tbaa !7
  %61 = icmp ne i32 %60, 0
  br i1 %61, label %62, label %63

62:                                               ; preds = %47
  br label %90

63:                                               ; preds = %47
  %64 = load ptr, ptr %11, align 8, !tbaa !9
  %65 = getelementptr inbounds [16 x i8], ptr %18, i64 0, i64 0
  call void @llvm.memcpy.p0.p0.i64(ptr align 1 %64, ptr align 16 %65, i64 8, i1 false)
  %66 = load ptr, ptr %20, align 8, !tbaa !9
  %67 = getelementptr inbounds [16 x i8], ptr %18, i64 0, i64 0
  %68 = getelementptr inbounds i8, ptr %67, i64 8
  call void @llvm.memcpy.p0.p0.i64(ptr align 1 %66, ptr align 1 %68, i64 8, i1 false)
  %69 = load ptr, ptr %20, align 8, !tbaa !9
  %70 = load ptr, ptr %12, align 8, !tbaa !9
  %71 = icmp eq ptr %69, %70
  br i1 %71, label %72, label %78

72:                                               ; preds = %63
  %73 = load ptr, ptr %12, align 8, !tbaa !9
  %74 = load i64, ptr %10, align 8, !tbaa !13
  %75 = sub i64 %74, 2
  %76 = mul i64 %75, 8
  %77 = getelementptr inbounds nuw i8, ptr %73, i64 %76
  store ptr %77, ptr %20, align 8, !tbaa !9
  br label %81

78:                                               ; preds = %63
  %79 = load ptr, ptr %20, align 8, !tbaa !9
  %80 = getelementptr inbounds i8, ptr %79, i64 -8
  store ptr %80, ptr %20, align 8, !tbaa !9
  br label %81

81:                                               ; preds = %78, %72
  br label %82

82:                                               ; preds = %81
  %83 = load i64, ptr %17, align 8, !tbaa !13
  %84 = add i64 %83, -1
  store i64 %84, ptr %17, align 8, !tbaa !13
  br label %44, !llvm.loop !21

85:                                               ; preds = %44
  %86 = load i64, ptr %10, align 8, !tbaa !13
  %87 = sub i64 %86, 1
  %88 = mul i64 %87, 8
  %89 = load ptr, ptr %13, align 8, !tbaa !15
  store i64 %88, ptr %89, align 8, !tbaa !13
  br label %90

90:                                               ; preds = %85, %62
  %91 = load i32, ptr %14, align 4, !tbaa !7
  %92 = icmp ne i32 %91, 0
  br i1 %92, label %93, label %98

93:                                               ; preds = %90
  %94 = load ptr, ptr %12, align 8, !tbaa !9
  %95 = load i64, ptr %10, align 8, !tbaa !13
  %96 = sub i64 %95, 1
  %97 = mul i64 %96, 8
  call void @llvm.memset.p0.i64(ptr align 1 %94, i8 0, i64 %97, i1 false)
  br label %98

98:                                               ; preds = %93, %90
  %99 = getelementptr inbounds [16 x i8], ptr %19, i64 0, i64 0
  call void @mbedtls_platform_zeroize(ptr noundef %99, i64 noundef 16)
  %100 = getelementptr inbounds [16 x i8], ptr %18, i64 0, i64 0
  call void @mbedtls_platform_zeroize(ptr noundef %100, i64 noundef 16)
  %101 = load i32, ptr %14, align 4, !tbaa !7
  store i32 %101, ptr %7, align 4
  store i32 1, ptr %21, align 4
  br label %102

102:                                              ; preds = %98, %28
  call void @llvm.lifetime.end.p0(i64 8, ptr %20) #9
  call void @llvm.lifetime.end.p0(i64 16, ptr %19) #9
  call void @llvm.lifetime.end.p0(i64 16, ptr %18) #9
  call void @llvm.lifetime.end.p0(i64 8, ptr %17) #9
  call void @llvm.lifetime.end.p0(i64 8, ptr %16) #9
  call void @llvm.lifetime.end.p0(i64 8, ptr %15) #9
  call void @llvm.lifetime.end.p0(i64 4, ptr %14) #9
  %103 = load i32, ptr %7, align 4
  ret i32 %103
}