; Function Attrs: nounwind uwtable
define internal fastcc i32 @unwrap(ptr noundef %0, ptr noundef readonly captures(none) %1, i64 noundef range(i64 2, 18014398509481985) %2, ptr noundef nonnull captures(none) %3, ptr noundef %4, ptr noundef writeonly captures(none) initializes((0, 8)) %5) unnamed_addr #2 {
  %7 = alloca i64, align 8
  %8 = alloca [16 x i8], align 16
  %9 = alloca [16 x i8], align 16
  call void @llvm.lifetime.start.p0(i64 8, ptr nonnull %7) #11
  call void @llvm.lifetime.start.p0(i64 16, ptr nonnull %8) #11
  call void @llvm.lifetime.start.p0(i64 16, ptr nonnull %9) #11
  store i64 0, ptr %5, align 8, !tbaa !3
  %10 = icmp samesign ult i64 %2, 3
  br i1 %10, label %41, label %.preheader.lr.ph

.preheader.lr.ph:                                 ; preds = %6
  %11 = add nsw i64 %2, -1
  %12 = load i64, ptr %1, align 1
  store i64 %12, ptr %3, align 1
  %13 = getelementptr inbounds nuw i8, ptr %1, i64 8
  %14 = shl nuw nsw i64 %11, 3
  tail call void @llvm.memmove.p0.p0.i64(ptr align 1 %4, ptr nonnull align 1 %13, i64 %14, i1 false)
  %15 = shl nuw nsw i64 %2, 3
  %16 = getelementptr i8, ptr %4, i64 %15
  %17 = getelementptr i8, ptr %16, i64 -16
  %18 = mul nuw nsw i64 %11, 6
  %19 = getelementptr inbounds nuw i8, ptr %9, i64 8
  %20 = getelementptr inbounds nuw i8, ptr %8, i64 8
  br label %.preheader

.preheader:                                       ; preds = %.preheader.lr.ph, %33
  %.046 = phi ptr [ %17, %.preheader.lr.ph ], [ %.1, %33 ]
  %.03245 = phi i64 [ %18, %.preheader.lr.ph ], [ %38, %33 ]
  br label %21

21:                                               ; preds = %.preheader, %21
  %.05.i = phi i64 [ %29, %21 ], [ 0, %.preheader ]
  %22 = shl nuw nsw i64 %.05.i, 3
  %23 = sub nuw nsw i64 56, %22
  %24 = lshr i64 %.03245, %23
  %25 = getelementptr inbounds nuw i8, ptr %3, i64 %.05.i
  %26 = load i8, ptr %25, align 1, !tbaa !7
  %27 = trunc i64 %24 to i8
  %28 = xor i8 %26, %27
  store i8 %28, ptr %25, align 1, !tbaa !7
  %29 = add nuw nsw i64 %.05.i, 1
  %exitcond.not.i = icmp eq i64 %29, 8
  br i1 %exitcond.not.i, label %calc_a_xor_t.exit, label %21, !llvm.loop !8

calc_a_xor_t.exit:                                ; preds = %21
  %30 = load i64, ptr %3, align 1
  store i64 %30, ptr %9, align 16
  %31 = load i64, ptr %.046, align 1
  store i64 %31, ptr %19, align 8
  %32 = call i32 @mbedtls_cipher_update(ptr noundef %0, ptr noundef nonnull %9, i64 noundef 16, ptr noundef nonnull %8, ptr noundef nonnull %7) #11
  %.not39 = icmp eq i32 %32, 0
  br i1 %.not39, label %33, label %39

33:                                               ; preds = %calc_a_xor_t.exit
  %34 = load i64, ptr %8, align 16
  store i64 %34, ptr %3, align 1
  %35 = load i64, ptr %20, align 8
  store i64 %35, ptr %.046, align 1
  %36 = icmp eq ptr %.046, %4
  %37 = getelementptr inbounds i8, ptr %.046, i64 -8
  %.1 = select i1 %36, ptr %17, ptr %37
  %38 = add nsw i64 %.03245, -1
  %.not = icmp eq i64 %38, 0
  br i1 %.not, label %.thread, label %.preheader, !llvm.loop !15

.thread:                                          ; preds = %33
  store i64 %14, ptr %5, align 8, !tbaa !3
  br label %40

39:                                               ; preds = %calc_a_xor_t.exit
  call void @llvm.memset.p0.i64(ptr align 1 %4, i8 0, i64 %14, i1 false)
  br label %40

40:                                               ; preds = %.thread, %39
  call void @mbedtls_platform_zeroize(ptr noundef nonnull %9, i64 noundef 16) #11
  call void @mbedtls_platform_zeroize(ptr noundef nonnull %8, i64 noundef 16) #11
  br label %41

41:                                               ; preds = %6, %40
  %.033 = phi i32 [ %32, %40 ], [ -24832, %6 ]
  call void @llvm.lifetime.end.p0(i64 16, ptr nonnull %9) #11
  call void @llvm.lifetime.end.p0(i64 16, ptr nonnull %8) #11
  call void @llvm.lifetime.end.p0(i64 8, ptr nonnull %7) #11
  ret i32 %.033
}